; Function Attrs: mustprogress uwtable
define hidden void @_ZN4cvc58internal6theory11quantifiers18EnumStreamConcreteC2ERNS0_3EnvEPNS2_11TermDbSygusE(ptr noundef nonnull align 8 dereferenceable(480) %this, ptr noundef nonnull align 8 dereferenceable(576) %env, ptr noundef %tds) unnamed_addr #3 align 2 personality ptr @__gxx_personality_v0 {
entry:
  tail call void @_ZN4cvc58internal6EnvObjC2ERNS0_3EnvE(ptr noundef nonnull align 8 dereferenceable(16) %this, ptr noundef nonnull align 8 dereferenceable(576) %env)
  store ptr getelementptr inbounds ({ [8 x ptr] }, ptr @_ZTVN4cvc58internal6theory11quantifiers18EnumStreamConcreteE, i64 0, i32 0, i64 2), ptr %this, align 8
  %d_ess = getelementptr inbounds i8, ptr %this, i64 16
  tail call void @_ZN4cvc58internal6theory11quantifiers22EnumStreamSubstitutionC2ERNS0_3EnvEPNS2_11TermDbSygusE(ptr noundef nonnull align 8 dereferenceable(452) %d_ess, ptr noundef nonnull align 8 dereferenceable(576) %env, ptr noundef %tds)
  %0 = load atomic i8, ptr @_ZGVZN4cvc58internal4expr9NodeValue4nullEvE6s_null acquire, align 8
  %guard.uninitialized.i.i = icmp eq i8 %0, 0
  br i1 %guard.uninitialized.i.i, label %init.check.i.i, label %invoke.cont3, !prof !4

init.check.i.i:                                   ; preds = %entry
  %1 = tail call i32 @__cxa_guard_acquire(ptr nonnull @_ZGVZN4cvc58internal4expr9NodeValue4nullEvE6s_null) #22
  %tobool.not.i.i = icmp eq i32 %1, 0
  br i1 %tobool.not.i.i, label %invoke.cont3, label %init.i.i

init.i.i:                                         ; preds = %init.check.i.i
  %call.i.i = invoke noalias noundef nonnull dereferenceable(16) ptr @_Znwm(i64 noundef 16) #23
          to label %invoke.cont.i.i unwind label %lpad.i.i

invoke.cont.i.i:                                  ; preds = %init.i.i
  store i64 1152920405095219200, ptr %call.i.i, align 8
  %d_kind.i.i.i = getelementptr inbounds i8, ptr %call.i.i, i64 8
  store i16 0, ptr %d_kind.i.i.i, align 8
  %d_nchildren.i.i.i = getelementptr inbounds i8, ptr %call.i.i, i64 12
  store i32 0, ptr %d_nchildren.i.i.i, align 4
  store ptr %call.i.i, ptr @_ZZN4cvc58internal4expr9NodeValue4nullEvE6s_null, align 8
  tail call void @__cxa_guard_release(ptr nonnull @_ZGVZN4cvc58internal4expr9NodeValue4nullEvE6s_null) #22
  br label %invoke.cont3

lpad.i.i:                                         ; preds = %init.i.i
  %2 = landingpad { ptr, i32 }
          cleanup
  tail call void @__cxa_guard_abort(ptr nonnull @_ZGVZN4cvc58internal4expr9NodeValue4nullEvE6s_null) #22
  tail call void @_ZN4cvc58internal6theory11quantifiers22EnumStreamSubstitutionD2Ev(ptr noundef nonnull align 8 dereferenceable(452) %d_ess) #22
  resume { ptr, i32 } %2

invoke.cont3:                                     ; preds = %invoke.cont.i.i, %init.check.i.i, %entry
  %d_currTerm = getelementptr inbounds i8, ptr %this, i64 472
  %3 = load ptr, ptr @_ZZN4cvc58internal4expr9NodeValue4nullEvE6s_null, align 8
  store ptr %3, ptr %d_currTerm, align 8
  ret void
}